target datalayout = "e-m:e-p270:32:32-p271:32:32-p272:64:64-i64:64-i128:128-f80:128-n8:16:32:64-S128"
target triple = "x86_64-pc-linux-gnu"

%struct.FFHWAccel = type { %struct.AVHWAccel, ptr, ptr, ptr, ptr, ptr, i32, i32, i32, ptr, ptr, ptr, ptr, ptr, ptr }
%struct.AVHWAccel = type { ptr, i32, i32, i32, i32 }
%struct.AVCodecContext = type { ptr, i32, i32, ptr, i32, i32, ptr, ptr, ptr, i64, i32, i32, ptr, i32, %struct.AVRational, %struct.AVRational, %struct.AVRational, i32, i32, i32, i32, i32, %struct.AVRational, i32, i32, i32, i32, i32, i32, i32, i32, i32, i32, i32, ptr, ptr, i32, float, float, float, float, float, float, float, float, float, i32, i32, i32, i32, i32, i32, i32, i32, i32, i32, i32, i32, ptr, ptr, ptr, i32, i32, i32, i32, i32, i32, i32, i32, i32, i32, %struct.AVChannelLayout, i32, i32, i32, i32, i32, i32, i32, i32, ptr, i32, i32, i32, float, float, i32, i32, i32, i32, i32, ptr, i64, i64, float, float, i32, i32, ptr, ptr, i32, i32, i32, i32, i32, ptr, ptr, ptr, ptr, i32, i32, [8 x i64], i32, i32, i32, i32, i32, i32, i32, ptr, ptr, i32, i32, i32, i32, i32, i32, i32, i32, i32, i32, ptr, ptr, i32, i32, ptr, ptr, ptr, ptr, i32, i32, i64, i32, i32, i64, ptr, i64, ptr, i32, ptr, i32 }
%struct.AVRational = type { i32, i32 }
%struct.AVChannelLayout = type { i32, i32, %union.anon, ptr }
%union.anon = type { i64 }
%struct.H264Context = type { ptr, ptr, %struct.VideoDSPContext, %struct.H264DSPContext, %struct.H264ChromaContext, %struct.H264QpelContext, %struct.H274FilmGrainDatabase, [36 x %struct.H264Picture], ptr, %struct.H264Picture, %struct.H264Picture, ptr, i32, i32, %struct.H2645Packet, i32, i32, i32, i32, i32, i32, i32, i32, i32, i32, i32, i32, i32, i32, i32, i32, i32, ptr, %struct.H264PredContext, ptr, [96 x i32], ptr, ptr, i32, ptr, i32, i32, i32, ptr, ptr, ptr, [2 x ptr], ptr, [16 x i8], [16 x i8], [64 x i8], [64 x i8], [16 x i8], [64 x i8], [64 x i8], [16 x i8], [64 x i8], [64 x i8], [16 x i8], [64 x i8], [64 x i8], i32, i32, i32, i32, i32, i32, i32, i32, i32, i32, i32, i32, %struct.H264ParamSets, ptr, %struct.H264POCContext, [2 x %struct.H264Ref], [32 x ptr], [32 x ptr], [18 x ptr], [16 x i32], ptr, i32, i32, [67 x %struct.MMCO], i32, i32, i32, i32, i32, i32, i32, i32, i32, i32, i32, i32, i32, i32, i32, [32 x i16], i32, i32, i32, %struct.ERContext, ptr, %struct.H264SEIContext, ptr, ptr, ptr, ptr, ptr, [32 x [2 x [64 x i32]]], i32, i32, i32 }
%struct.VideoDSPContext = type { ptr, ptr }
%struct.H264DSPContext = type { [4 x ptr], [4 x ptr], ptr, ptr, ptr, ptr, ptr, ptr, ptr, ptr, ptr, ptr, ptr, ptr, ptr, ptr, ptr, ptr, ptr, ptr, ptr, ptr, ptr, ptr, ptr, ptr, ptr, ptr }
%struct.H264ChromaContext = type { [4 x ptr], [4 x ptr] }
%struct.H264QpelContext = type { [4 x [16 x ptr]], [4 x [16 x ptr]] }
%struct.H274FilmGrainDatabase = type { [13 x [13 x [64 x [64 x i8]]]], [13 x i16], [64 x [64 x i16]] }
%struct.H264Picture = type { ptr, %struct.ThreadFrame, ptr, ptr, ptr, [2 x ptr], [2 x ptr], ptr, ptr, ptr, [2 x ptr], [2 x i32], i32, i32, i32, i32, i32, [2 x [2 x [32 x i32]]], [2 x [2 x i32]], i32, i32, i32, i32, i32, i32, i32, ptr, i32, i32, i32, ptr, i32 }
%struct.ThreadFrame = type { ptr, [2 x ptr], ptr }
%struct.H2645Packet = type { ptr, %struct.H2645RBSP, i32, i32, i32 }
%struct.H2645RBSP = type { ptr, ptr, i32, i32 }
%struct.H264PredContext = type { [15 x ptr], [12 x ptr], [11 x ptr], [9 x ptr], [2 x ptr], [2 x ptr], [2 x ptr], [3 x ptr], [3 x ptr] }
%struct.H264ParamSets = type { [32 x ptr], [256 x ptr], ptr, ptr, [2 x i32] }
%struct.H264POCContext = type { i32, i32, i32, [2 x i32], i32, i32, i32, i32, i32, i32 }
%struct.H264Ref = type { [3 x ptr], [3 x i32], i32, i32, i32, ptr }
%struct.MMCO = type { i32, i32, i32 }
%struct.ERContext = type { ptr, ptr, i32, ptr, i32, i32, i32, i64, i64, i32, i32, ptr, ptr, [3 x ptr], ptr, ptr, [2 x [4 x [2 x i32]]], %struct.ERPicture, %struct.ERPicture, %struct.ERPicture, [2 x ptr], [2 x ptr], i16, i16, i32, i32, ptr, ptr }
%struct.ERPicture = type { ptr, ptr, ptr, [2 x ptr], [2 x ptr], ptr, i32 }
%struct.H264SEIContext = type { %struct.H2645SEI, %struct.H264SEIPictureTiming, %struct.H264SEIRecoveryPoint, %struct.H264SEIBufferingPeriod, %struct.H264SEIGreenMetaData }
%struct.H2645SEI = type { %struct.H2645SEIA53Caption, %struct.H2645SEIAFD, %struct.HEVCSEIDynamicHDRPlus, %struct.HEVCSEIDynamicHDRVivid, %struct.HEVCSEILCEVC, %struct.H2645SEIUnregistered, %struct.H2645SEIFramePacking, %struct.H2645SEIDisplayOrientation, %struct.H2645SEIAlternativeTransfer, %struct.H2645SEIAmbientViewingEnvironment, %struct.H2645SEIMasteringDisplay, %struct.H2645SEIContentLight, %struct.AVFilmGrainAFGS1Params, ptr }
%struct.H2645SEIA53Caption = type { ptr }
%struct.H2645SEIAFD = type { i32, i8 }
%struct.HEVCSEIDynamicHDRPlus = type { ptr }
%struct.HEVCSEIDynamicHDRVivid = type { ptr }
%struct.HEVCSEILCEVC = type { ptr }
%struct.H2645SEIUnregistered = type { ptr, i32, i32 }
%struct.H2645SEIFramePacking = type { i32, i32, i32, i32, i32, i32, i32, i32 }
%struct.H2645SEIDisplayOrientation = type { i32, i32, i32, i32 }
%struct.H2645SEIAlternativeTransfer = type { i32, i32 }
%struct.H2645SEIAmbientViewingEnvironment = type { i32, i32, i16, i16 }
%struct.H2645SEIMasteringDisplay = type { i32, [3 x [2 x i16]], [2 x i16], i32, i32 }
%struct.H2645SEIContentLight = type { i32, i16, i16 }
%struct.AVFilmGrainAFGS1Params = type { i32, [8 x ptr] }
%struct.H264SEIPictureTiming = type { [40 x i8], i32, i32, i32, i32, i32, i32, [3 x %struct.H264SEITimeCode], i32 }
%struct.H264SEITimeCode = type { i32, i32, i32, i32, i32, i32 }
%struct.H264SEIRecoveryPoint = type { i32 }
%struct.H264SEIBufferingPeriod = type { i32, [32 x i32] }
%struct.H264SEIGreenMetaData = type { i8, i8, i16, i16, i8, i8, i8, i8, i8, i16 }

; Function Attrs: nounwind uwtable
define internal void @idr(ptr noundef %0) #0 {
  %2 = alloca ptr, align 8
  %3 = alloca i32, align 4
  store ptr %0, ptr %2, align 8, !tbaa !29
  call void @llvm.lifetime.start.p0(i64 4, ptr %3) #11
  %4 = load ptr, ptr %2, align 8, !tbaa !29
  call void @ff_h264_remove_all_refs(ptr noundef %4)
  %5 = load ptr, ptr %2, align 8, !tbaa !29
  %6 = getelementptr inbounds nuw %struct.H264Context, ptr %5, i32 0, i32 75
  %7 = getelementptr inbounds nuw %struct.H264POCContext, ptr %6, i32 0, i32 8
  store i32 0, ptr %7, align 4, !tbaa !171
  %8 = load ptr, ptr %2, align 8, !tbaa !29
  %9 = getelementptr inbounds nuw %struct.H264Context, ptr %8, i32 0, i32 75
  %10 = getelementptr inbounds nuw %struct.H264POCContext, ptr %9, i32 0, i32 9
  store i32 0, ptr %10, align 8, !tbaa !162
  %11 = load ptr, ptr %2, align 8, !tbaa !29
  %12 = getelementptr inbounds nuw %struct.H264Context, ptr %11, i32 0, i32 75
  %13 = getelementptr inbounds nuw %struct.H264POCContext, ptr %12, i32 0, i32 5
  store i32 65536, ptr %13, align 8, !tbaa !172
  %14 = load ptr, ptr %2, align 8, !tbaa !29
  %15 = getelementptr inbounds nuw %struct.H264Context, ptr %14, i32 0, i32 75
  %16 = getelementptr inbounds nuw %struct.H264POCContext, ptr %15, i32 0, i32 6
  store i32 -1, ptr %16, align 4, !tbaa !173
  store i32 0, ptr %3, align 4, !tbaa !83
  br label %17

17:                                               ; preds = %27, %1
  %18 = load i32, ptr %3, align 4, !tbaa !83
  %19 = sext i32 %18 to i64
  %20 = icmp ult i64 %19, 16
  br i1 %20, label %21, label %30

21:                                               ; preds = %17
  %22 = load ptr, ptr %2, align 8, !tbaa !29
  %23 = getelementptr inbounds nuw %struct.H264Context, ptr %22, i32 0, i32 80
  %24 = load i32, ptr %3, align 4, !tbaa !83
  %25 = sext i32 %24 to i64
  %26 = getelementptr inbounds [16 x i32], ptr %23, i64 0, i64 %25
  store i32 -2147483648, ptr %26, align 4, !tbaa !83
  br label %27

27:                                               ; preds = %21
  %28 = load i32, ptr %3, align 4, !tbaa !83
  %29 = add nsw i32 %28, 1
  store i32 %29, ptr %3, align 4, !tbaa !83
  br label %17, !llvm.loop !174

30:                                               ; preds = %17
  call void @llvm.lifetime.end.p0(i64 4, ptr %3) #11
  ret void
}

; Function Attrs: inlinehint nounwind uwtable
define internal ptr @ffhwaccel(ptr noundef %0) #3 {
  %2 = alloca ptr, align 8
  store ptr %0, ptr %2, align 8, !tbaa !284
  %3 = load ptr, ptr %2, align 8, !tbaa !284
  ret ptr %3
}

; Function Attrs: nounwind uwtable
define void @ff_h264_flush_change(ptr noundef %0) #0 {
  %2 = alloca ptr, align 8
  %3 = alloca i32, align 4
  %4 = alloca i32, align 4
  store ptr %0, ptr %2, align 8, !tbaa !29
  call void @llvm.lifetime.start.p0(i64 4, ptr %3) #11
  call void @llvm.lifetime.start.p0(i64 4, ptr %4) #11
  %5 = load ptr, ptr %2, align 8, !tbaa !29
  %6 = getelementptr inbounds nuw %struct.H264Context, ptr %5, i32 0, i32 82
  store i32 -2147483648, ptr %6, align 8, !tbaa !160
  %7 = load ptr, ptr %2, align 8, !tbaa !29
  %8 = getelementptr inbounds nuw %struct.H264Context, ptr %7, i32 0, i32 91
  store i32 1, ptr %8, align 4, !tbaa !161
  %9 = load ptr, ptr %2, align 8, !tbaa !29
  call void @idr(ptr noundef %9)
  %10 = load ptr, ptr %2, align 8, !tbaa !29
  %11 = getelementptr inbounds nuw %struct.H264Context, ptr %10, i32 0, i32 75
  %12 = getelementptr inbounds nuw %struct.H264POCContext, ptr %11, i32 0, i32 9
  store i32 -1, ptr %12, align 8, !tbaa !162
  %13 = load ptr, ptr %2, align 8, !tbaa !29
  %14 = getelementptr inbounds nuw %struct.H264Context, ptr %13, i32 0, i32 8
  %15 = load ptr, ptr %14, align 8, !tbaa !163
  %16 = icmp ne ptr %15, null
  br i1 %16, label %17, label %64

17:                                               ; preds = %1
  %18 = load ptr, ptr %2, align 8, !tbaa !29
  %19 = getelementptr inbounds nuw %struct.H264Context, ptr %18, i32 0, i32 8
  %20 = load ptr, ptr %19, align 8, !tbaa !163
  %21 = getelementptr inbounds nuw %struct.H264Picture, ptr %20, i32 0, i32 21
  store i32 0, ptr %21, align 4, !tbaa !164
  store i32 0, ptr %3, align 4, !tbaa !83
  store i32 0, ptr %4, align 4, !tbaa !83
  br label %22

22:                                               ; preds = %55, %17
  %23 = load ptr, ptr %2, align 8, !tbaa !29
  %24 = getelementptr inbounds nuw %struct.H264Context, ptr %23, i32 0, i32 79
  %25 = load i32, ptr %3, align 4, !tbaa !83
  %26 = sext i32 %25 to i64
  %27 = getelementptr inbounds [18 x ptr], ptr %24, i64 0, i64 %26
  %28 = load ptr, ptr %27, align 8, !tbaa !165
  %29 = icmp ne ptr %28, null
  br i1 %29, label %30, label %58

30:                                               ; preds = %22
  %31 = load ptr, ptr %2, align 8, !tbaa !29
  %32 = getelementptr inbounds nuw %struct.H264Context, ptr %31, i32 0, i32 79
  %33 = load i32, ptr %3, align 4, !tbaa !83
  %34 = sext i32 %33 to i64
  %35 = getelementptr inbounds [18 x ptr], ptr %32, i64 0, i64 %34
  %36 = load ptr, ptr %35, align 8, !tbaa !165
  %37 = load ptr, ptr %2, align 8, !tbaa !29
  %38 = getelementptr inbounds nuw %struct.H264Context, ptr %37, i32 0, i32 8
  %39 = load ptr, ptr %38, align 8, !tbaa !163
  %40 = icmp ne ptr %36, %39
  br i1 %40, label %41, label %54

41:                                               ; preds = %30
  %42 = load ptr, ptr %2, align 8, !tbaa !29
  %43 = getelementptr inbounds nuw %struct.H264Context, ptr %42, i32 0, i32 79
  %44 = load i32, ptr %3, align 4, !tbaa !83
  %45 = sext i32 %44 to i64
  %46 = getelementptr inbounds [18 x ptr], ptr %43, i64 0, i64 %45
  %47 = load ptr, ptr %46, align 8, !tbaa !165
  %48 = load ptr, ptr %2, align 8, !tbaa !29
  %49 = getelementptr inbounds nuw %struct.H264Context, ptr %48, i32 0, i32 79
  %50 = load i32, ptr %4, align 4, !tbaa !83
  %51 = add nsw i32 %50, 1
  store i32 %51, ptr %4, align 4, !tbaa !83
  %52 = sext i32 %50 to i64
  %53 = getelementptr inbounds [18 x ptr], ptr %49, i64 0, i64 %52
  store ptr %47, ptr %53, align 8, !tbaa !165
  br label %54

54:                                               ; preds = %41, %30
  br label %55

55:                                               ; preds = %54
  %56 = load i32, ptr %3, align 4, !tbaa !83
  %57 = add nsw i32 %56, 1
  store i32 %57, ptr %3, align 4, !tbaa !83
  br label %22, !llvm.loop !166

58:                                               ; preds = %22
  %59 = load ptr, ptr %2, align 8, !tbaa !29
  %60 = getelementptr inbounds nuw %struct.H264Context, ptr %59, i32 0, i32 79
  %61 = load i32, ptr %4, align 4, !tbaa !83
  %62 = sext i32 %61 to i64
  %63 = getelementptr inbounds [18 x ptr], ptr %60, i64 0, i64 %62
  store ptr null, ptr %63, align 8, !tbaa !165
  br label %64

64:                                               ; preds = %58, %1
  %65 = load ptr, ptr %2, align 8, !tbaa !29
  %66 = getelementptr inbounds nuw %struct.H264Context, ptr %65, i32 0, i32 10
  call void @ff_h264_unref_picture(ptr noundef %66)
  %67 = load ptr, ptr %2, align 8, !tbaa !29
  %68 = getelementptr inbounds nuw %struct.H264Context, ptr %67, i32 0, i32 42
  store i32 0, ptr %68, align 8, !tbaa !89
  %69 = load ptr, ptr %2, align 8, !tbaa !29
  %70 = getelementptr inbounds nuw %struct.H264Context, ptr %69, i32 0, i32 93
  store i32 -1, ptr %70, align 4, !tbaa !167
  %71 = load ptr, ptr %2, align 8, !tbaa !29
  %72 = getelementptr inbounds nuw %struct.H264Context, ptr %71, i32 0, i32 94
  store i32 0, ptr %72, align 8, !tbaa !168
  %73 = load ptr, ptr %2, align 8, !tbaa !29
  %74 = getelementptr inbounds nuw %struct.H264Context, ptr %73, i32 0, i32 90
  store i32 0, ptr %74, align 8, !tbaa !169
  %75 = load ptr, ptr %2, align 8, !tbaa !29
  %76 = getelementptr inbounds nuw %struct.H264Context, ptr %75, i32 0, i32 86
  store i32 1, ptr %76, align 8, !tbaa !170
  call void @llvm.lifetime.end.p0(i64 4, ptr %4) #11
  call void @llvm.lifetime.end.p0(i64 4, ptr %3) #11
  ret void
}

; Function Attrs: nounwind uwtable
define internal void @h264_decode_flush(ptr noundef %0) #0 {
  %2 = alloca ptr, align 8
  %3 = alloca ptr, align 8
  %4 = alloca i32, align 4
  store ptr %0, ptr %2, align 8, !tbaa !4
  call void @llvm.lifetime.start.p0(i64 8, ptr %3) #11
  %5 = load ptr, ptr %2, align 8, !tbaa !4
  %6 = getelementptr inbounds nuw %struct.AVCodecContext, ptr %5, i32 0, i32 6
  %7 = load ptr, ptr %6, align 8, !tbaa !9
  store ptr %7, ptr %3, align 8, !tbaa !29
  call void @llvm.lifetime.start.p0(i64 4, ptr %4) #11
  %8 = load ptr, ptr %3, align 8, !tbaa !29
  %9 = getelementptr inbounds nuw %struct.H264Context, ptr %8, i32 0, i32 79
  %10 = getelementptr inbounds [18 x ptr], ptr %9, i64 0, i64 0
  call void @llvm.memset.p0.i64(ptr align 8 %10, i8 0, i64 144, i1 false)
  %11 = load ptr, ptr %3, align 8, !tbaa !29
  call void @ff_h264_flush_change(ptr noundef %11)
  %12 = load ptr, ptr %3, align 8, !tbaa !29
  %13 = getelementptr inbounds nuw %struct.H264Context, ptr %12, i32 0, i32 106
  call void @ff_h264_sei_uninit(ptr noundef %13)
  store i32 0, ptr %4, align 4, !tbaa !83
  br label %14

14:                                               ; preds = %23, %1
  %15 = load i32, ptr %4, align 4, !tbaa !83
  %16 = icmp slt i32 %15, 36
  br i1 %16, label %17, label %26

17:                                               ; preds = %14
  %18 = load ptr, ptr %3, align 8, !tbaa !29
  %19 = getelementptr inbounds nuw %struct.H264Context, ptr %18, i32 0, i32 7
  %20 = load i32, ptr %4, align 4, !tbaa !83
  %21 = sext i32 %20 to i64
  %22 = getelementptr inbounds [36 x %struct.H264Picture], ptr %19, i64 0, i64 %21
  call void @ff_h264_unref_picture(ptr noundef %22)
  br label %23

23:                                               ; preds = %17
  %24 = load i32, ptr %4, align 4, !tbaa !83
  %25 = add nsw i32 %24, 1
  store i32 %25, ptr %4, align 4, !tbaa !83
  br label %14, !llvm.loop !207

26:                                               ; preds = %14
  %27 = load ptr, ptr %3, align 8, !tbaa !29
  %28 = getelementptr inbounds nuw %struct.H264Context, ptr %27, i32 0, i32 8
  store ptr null, ptr %28, align 8, !tbaa !163
  %29 = load ptr, ptr %3, align 8, !tbaa !29
  %30 = getelementptr inbounds nuw %struct.H264Context, ptr %29, i32 0, i32 9
  call void @ff_h264_unref_picture(ptr noundef %30)
  %31 = load ptr, ptr %3, align 8, !tbaa !29
  %32 = getelementptr inbounds nuw %struct.H264Context, ptr %31, i32 0, i32 61
  store i32 0, ptr %32, align 8, !tbaa !203
  %33 = load ptr, ptr %3, align 8, !tbaa !29
  %34 = getelementptr inbounds nuw %struct.H264Context, ptr %33, i32 0, i32 113
  store i32 0, ptr %34, align 8, !tbaa !208
  %35 = load ptr, ptr %3, align 8, !tbaa !29
  call void @ff_h264_free_tables(ptr noundef %35)
  %36 = load ptr, ptr %3, align 8, !tbaa !29
  %37 = getelementptr inbounds nuw %struct.H264Context, ptr %36, i32 0, i32 21
  store i32 0, ptr %37, align 8, !tbaa !209
  %38 = load ptr, ptr %2, align 8, !tbaa !4
  %39 = getelementptr inbounds nuw %struct.AVCodecContext, ptr %38, i32 0, i32 105
  %40 = load ptr, ptr %39, align 8, !tbaa !210
  %41 = icmp ne ptr %40, null
  br i1 %41, label %42, label %58

42:                                               ; preds = %26
  %43 = load ptr, ptr %2, align 8, !tbaa !4
  %44 = getelementptr inbounds nuw %struct.AVCodecContext, ptr %43, i32 0, i32 105
  %45 = load ptr, ptr %44, align 8, !tbaa !210
  %46 = call ptr @ffhwaccel(ptr noundef %45)
  %47 = getelementptr inbounds nuw %struct.FFHWAccel, ptr %46, i32 0, i32 14
  %48 = load ptr, ptr %47, align 8, !tbaa !211
  %49 = icmp ne ptr %48, null
  br i1 %49, label %50, label %58

50:                                               ; preds = %42
  %51 = load ptr, ptr %2, align 8, !tbaa !4
  %52 = getelementptr inbounds nuw %struct.AVCodecContext, ptr %51, i32 0, i32 105
  %53 = load ptr, ptr %52, align 8, !tbaa !210
  %54 = call ptr @ffhwaccel(ptr noundef %53)
  %55 = getelementptr inbounds nuw %struct.FFHWAccel, ptr %54, i32 0, i32 14
  %56 = load ptr, ptr %55, align 8, !tbaa !211
  %57 = load ptr, ptr %2, align 8, !tbaa !4
  call void %56(ptr noundef %57)
  br label %58

58:                                               ; preds = %50, %42, %26
  call void @llvm.lifetime.end.p0(i64 4, ptr %4) #11
  call void @llvm.lifetime.end.p0(i64 8, ptr %3) #11
  ret void
}