; Function Attrs: nounwind uwtable
define internal void @h264_decode_flush(ptr noundef %0) #2 {
  %2 = getelementptr inbounds nuw i8, ptr %0, i64 32
  %3 = load ptr, ptr %2, align 8, !tbaa !4
  %4 = getelementptr inbounds nuw i8, ptr %3, i64 735480
  tail call void @llvm.memset.p0.i64(ptr noundef nonnull align 8 dereferenceable(144) %4, i8 0, i64 144, i1 false)
  %5 = getelementptr inbounds nuw i8, ptr %3, i64 735696
  store i32 -2147483648, ptr %5, align 8, !tbaa !147
  %6 = getelementptr inbounds nuw i8, ptr %3, i64 736532
  store i32 1, ptr %6, align 4, !tbaa !148
  tail call void @ff_h264_remove_all_refs(ptr noundef %3) #11
  %7 = getelementptr inbounds nuw i8, ptr %3, i64 734844
  store i32 0, ptr %7, align 4, !tbaa !149
  %8 = getelementptr inbounds nuw i8, ptr %3, i64 734832
  store i32 65536, ptr %8, align 8, !tbaa !150
  %9 = getelementptr inbounds nuw i8, ptr %3, i64 734836
  store i32 -1, ptr %9, align 4, !tbaa !151
  %10 = getelementptr inbounds nuw i8, ptr %3, i64 735624
  br label %11

11:                                               ; preds = %11, %1
  %indvars.iv.i.i = phi i64 [ 0, %1 ], [ %indvars.iv.next.i.i, %11 ]
  %12 = getelementptr inbounds nuw [16 x i32], ptr %10, i64 0, i64 %indvars.iv.i.i
  store i32 -2147483648, ptr %12, align 4, !tbaa !89
  %indvars.iv.next.i.i = add nuw nsw i64 %indvars.iv.i.i, 1
  %exitcond.not.i.i = icmp eq i64 %indvars.iv.next.i.i, 16
  br i1 %exitcond.not.i.i, label %idr.exit.i, label %11, !llvm.loop !152

idr.exit.i:                                       ; preds = %11
  %13 = getelementptr inbounds nuw i8, ptr %3, i64 734848
  store i32 -1, ptr %13, align 8, !tbaa !153
  %14 = getelementptr inbounds nuw i8, ptr %3, i64 729200
  %15 = load ptr, ptr %14, align 8, !tbaa !154
  %.not.i = icmp eq ptr %15, null
  br i1 %.not.i, label %ff_h264_flush_change.exit, label %16

16:                                               ; preds = %idr.exit.i
  %17 = getelementptr inbounds nuw i8, ptr %15, i64 700
  store i32 0, ptr %17, align 4, !tbaa !155
  %18 = load ptr, ptr %4, align 8, !tbaa !156
  %.not2628.i = icmp eq ptr %18, null
  br i1 %.not2628.i, label %._crit_edge.i, label %.lr.ph.i

.lr.ph.i:                                         ; preds = %16, %25
  %indvars.iv.i = phi i64 [ %indvars.iv.next.i, %25 ], [ 0, %16 ]
  %19 = phi ptr [ %27, %25 ], [ %18, %16 ]
  %.030.i = phi i32 [ %.1.i, %25 ], [ 0, %16 ]
  %20 = load ptr, ptr %14, align 8, !tbaa !154
  %.not27.i = icmp eq ptr %19, %20
  br i1 %.not27.i, label %25, label %21

21:                                               ; preds = %.lr.ph.i
  %22 = add nsw i32 %.030.i, 1
  %23 = sext i32 %.030.i to i64
  %24 = getelementptr inbounds [18 x ptr], ptr %4, i64 0, i64 %23
  store ptr %19, ptr %24, align 8, !tbaa !156
  br label %25

25:                                               ; preds = %21, %.lr.ph.i
  %.1.i = phi i32 [ %22, %21 ], [ %.030.i, %.lr.ph.i ]
  %indvars.iv.next.i = add nuw nsw i64 %indvars.iv.i, 1
  %26 = getelementptr inbounds nuw [18 x ptr], ptr %4, i64 0, i64 %indvars.iv.next.i
  %27 = load ptr, ptr %26, align 8, !tbaa !156
  %.not26.i = icmp eq ptr %27, null
  br i1 %.not26.i, label %._crit_edge.loopexit.i, label %.lr.ph.i, !llvm.loop !157

._crit_edge.loopexit.i:                           ; preds = %25
  %28 = sext i32 %.1.i to i64
  br label %._crit_edge.i

._crit_edge.i:                                    ; preds = %._crit_edge.loopexit.i, %16
  %.0.lcssa.i = phi i64 [ 0, %16 ], [ %28, %._crit_edge.loopexit.i ]
  %29 = getelementptr inbounds [18 x ptr], ptr %4, i64 0, i64 %.0.lcssa.i
  store ptr null, ptr %29, align 8, !tbaa !156
  br label %ff_h264_flush_change.exit

ff_h264_flush_change.exit:                        ; preds = %idr.exit.i, %._crit_edge.i
  %30 = getelementptr inbounds nuw i8, ptr %3, i64 729968
  tail call void @ff_h264_unref_picture(ptr noundef nonnull %30) #11
  %31 = getelementptr inbounds nuw i8, ptr %3, i64 731776
  store i32 0, ptr %31, align 8, !tbaa !83
  %32 = getelementptr inbounds nuw i8, ptr %3, i64 736540
  store i32 -1, ptr %32, align 4, !tbaa !158
  %33 = getelementptr inbounds nuw i8, ptr %3, i64 736544
  store i32 0, ptr %33, align 8, !tbaa !159
  %34 = getelementptr inbounds nuw i8, ptr %3, i64 736528
  store i32 0, ptr %34, align 8, !tbaa !160
  %35 = getelementptr inbounds nuw i8, ptr %3, i64 736512
  store i32 1, ptr %35, align 8, !tbaa !161
  %36 = getelementptr inbounds nuw i8, ptr %3, i64 737128
  tail call void @ff_h264_sei_uninit(ptr noundef nonnull %36) #11
  %37 = getelementptr inbounds nuw i8, ptr %3, i64 701840
  br label %38

38:                                               ; preds = %ff_h264_flush_change.exit, %38
  %indvars.iv = phi i64 [ 0, %ff_h264_flush_change.exit ], [ %indvars.iv.next, %38 ]
  %39 = getelementptr inbounds nuw [36 x %struct.H264Picture], ptr %37, i64 0, i64 %indvars.iv
  tail call void @ff_h264_unref_picture(ptr noundef nonnull %39) #11
  %indvars.iv.next = add nuw nsw i64 %indvars.iv, 1
  %exitcond.not = icmp eq i64 %indvars.iv.next, 36
  br i1 %exitcond.not, label %40, label %38, !llvm.loop !267

40:                                               ; preds = %38
  store ptr null, ptr %14, align 8, !tbaa !154
  %41 = getelementptr inbounds nuw i8, ptr %3, i64 729208
  tail call void @ff_h264_unref_picture(ptr noundef nonnull %41) #11
  %42 = getelementptr inbounds nuw i8, ptr %3, i64 732424
  store i32 0, ptr %42, align 8, !tbaa !264
  %43 = getelementptr inbounds nuw i8, ptr %3, i64 754088
  store i32 0, ptr %43, align 8, !tbaa !268
  tail call void @ff_h264_free_tables(ptr noundef nonnull %3)
  %44 = getelementptr inbounds nuw i8, ptr %3, i64 730816
  store i32 0, ptr %44, align 8, !tbaa !269
  %45 = getelementptr inbounds nuw i8, ptr %0, i64 536
  %46 = load ptr, ptr %45, align 8, !tbaa !230
  %.not = icmp eq ptr %46, null
  br i1 %.not, label %51, label %47

47:                                               ; preds = %40
  %48 = getelementptr inbounds nuw i8, ptr %46, i64 120
  %49 = load ptr, ptr %48, align 8, !tbaa !270
  %.not18 = icmp eq ptr %49, null
  br i1 %.not18, label %51, label %50

50:                                               ; preds = %47
  tail call void %49(ptr noundef nonnull %0) #11
  br label %51

51:                                               ; preds = %50, %47, %40
  ret void
}